(dp0
S'code_type'
p1
S'Surface Code'
p2
sS'trials'
p3
I100
sS'L'
p4
(lp5
I3
aI3
aI3
aI3
aI3
aI3
aI3
aI3
aI3
aI3
aI5
aI5
aI5
aI5
aI5
aI5
aI5
aI5
aI5
aI5
asS'p_succ'
p6
(lp7
F0.99
aF1.0
aF0.99
aF0.99
aF0.98
aF0.9299999999999999
aF0.92
aF0.76
aF0.65
aF0.43000000000000005
aF1.0
aF1.0
aF0.99
aF0.98
aF0.97
aF0.92
aF0.88
aF0.81
aF0.5900000000000001
aF0.37
asS'model_type'
p8
S'Code Capacity'
p9
sS'p_phys'
p10
(lp11
cnumpy.core.multiarray
scalar
p12
(cnumpy
dtype
p13
(S'f8'
p14
I0
I1
tp15
Rp16
(I3
S'<'
p17
NNNI-1
I-1
I0
tp18
bS'{\x14\xaeG\xe1z\x84?'
p19
tp20
Rp21
ag12
(g16
S'\t\x99\xdb\xe3\x1bM\x8d?'
p22
tp23
Rp24
ag12
(g16
S"\xf3\xa2U'\x01\xf6\x94?"
p25
tp26
Rp27
ag12
(g16
S'\x1e#\x11\x19D\xfd\x9d?'
p28
tp29
Rp30
ag12
(g16
S'.F\x8a>\x05t\xa5?'
p31
tp32
Rp33
ag12
(g16
S'\xcb\xd9\xeaY\x8f\xb1\xae?'
p34
tp35
Rp36
ag12
(g16
S'\xb6\xa5o\xef\xfe\xf4\xb5?'
p37
tp38
Rp39
ag12
(g16
S'2aS\x85\x16j\xbf?'
p40
tp41
Rp42
ag12
(g16
S'\x19`\xab\x04\x00y\xc6?'
p43
tp44
Rp45
ag12
(g16
S'Lp\xdd\x87y\x13\xd0?'
p46
tp47
Rp48
ag12
(g16
S'{\x14\xaeG\xe1z\x84?'
p49
tp50
Rp51
ag12
(g16
S'\t\x99\xdb\xe3\x1bM\x8d?'
p52
tp53
Rp54
ag12
(g16
S"\xf3\xa2U'\x01\xf6\x94?"
p55
tp56
Rp57
ag12
(g16
S'\x1e#\x11\x19D\xfd\x9d?'
p58
tp59
Rp60
ag12
(g16
S'.F\x8a>\x05t\xa5?'
p61
tp62
Rp63
ag12
(g16
S'\xcb\xd9\xeaY\x8f\xb1\xae?'
p64
tp65
Rp66
ag12
(g16
S'\xb6\xa5o\xef\xfe\xf4\xb5?'
p67
tp68
Rp69
ag12
(g16
S'2aS\x85\x16j\xbf?'
p70
tp71
Rp72
ag12
(g16
S'\x19`\xab\x04\x00y\xc6?'
p73
tp74
Rp75
ag12
(g16
S'Lp\xdd\x87y\x13\xd0?'
p76
tp77
Rp78
asS'decoder_type'
p79
S'MWPM'
p80
sS'dimension'
p81
I2
s.