(dp0
S'code_type'
p1
S'Surface Code'
p2
sS'trials'
p3
I1000
sS'L'
p4
(lp5
I3
aI3
aI3
aI3
aI3
aI5
aI5
aI5
aI5
aI5
asS'p_succ'
p6
(lp7
F1.0
aF0.989
aF0.924
aF0.5740000000000001
aF0.04500000000000004
aF0.998
aF0.991
aF0.933
aF0.548
aF0.027000000000000024
asS'model_type'
p8
S'Code Capacity'
p9
sS'p_phys'
p10
(lp11
cnumpy.core.multiarray
scalar
p12
(cnumpy
dtype
p13
(S'f8'
p14
I0
I1
tp15
Rp16
(I3
S'<'
p17
NNNI-1
I-1
I0
tp18
bS'{\x14\xaeG\xe1z\x84?'
p19
tp20
Rp21
ag12
(g16
S"'\x8d\x9e\\\xee>\x9b?"
p22
tp23
Rp24
ag12
(g16
S'<\x89 \xef\x97\x1f\xb2?'
p25
tp26
Rp27
ag12
(g16
S'~/\xd3aW\x1c\xc8?'
p28
tp29
Rp30
ag12
(g16
S'RB3\xcf\xb9\t\xe0?'
p31
tp32
Rp33
ag12
(g16
S'{\x14\xaeG\xe1z\x84?'
p34
tp35
Rp36
ag12
(g16
S"'\x8d\x9e\\\xee>\x9b?"
p37
tp38
Rp39
ag12
(g16
S'<\x89 \xef\x97\x1f\xb2?'
p40
tp41
Rp42
ag12
(g16
S'~/\xd3aW\x1c\xc8?'
p43
tp44
Rp45
ag12
(g16
S'RB3\xcf\xb9\t\xe0?'
p46
tp47
Rp48
asS'decoder_type'
p49
S'MWPM'
p50
sS'dimension'
p51
I2
s.